(dp1
S'dd148'
p2
(lp3
F0.79650681270500001
aI0
aF2
aI0
aF0.71379999999999999
aF0.68120000000000003
aF1
aF1
aI0
asS'dd220'
p4
(lp5
F0.55847447590300003
aI0
aF0.66273978012599999
aI0
aF0.73729999999999996
aF0.60319999999999996
aF1
aF1
aI1
asS'dd223'
p6
(lp7
F0.837221052666
aI0
aF2
aI0
aF0.2135
aF0.2303
aF0
aF0
aI0
asS'dd222'
p8
(lp9
F0.837221052666
aI0
aF2
aI0
aF0.2135
aF0.2303
aF0
aF0
aI0
asS'dd144'
p10
(lp11
F0.56919899267700003
aI0
aF0.87503884849900004
aI0
aF0.25779999999999997
aF0.3367
aF1
aF0
aI0
asS'dd145'
p12
(lp13
F2
aI0
aF0.25614975088500003
aI0
aF0.43880000000000002
aF0.375
aF0
aF1
aI0
asS'dd146'
p14
(lp15
F0.72469541029700002
aI0
aF0.556573225018
aI0
aF0.43880000000000002
aF0.375
aF0
aF1
aI0
asS'dd147'
p16
(lp17
F0.83928780502599998
aI0
aF2
aI0
aF0.25779999999999997
aF0.3367
aF1
aF0
aI0
asS'dd029'
p18
(lp19
F2
aF0.53719995003400001
aF0.51800174043000002
aI0
aF0.8931
aF0.36620000000000003
aF1
aF1
aI0
asS'dd023'
p20
(lp21
F0.054920148646700001
aI0
aF0.71118225741600005
aI0
aF0.54059999999999997
aF0.1762
aF0
aF0
aI1
asS'dd022'
p22
(lp23
F0.51826780603800005
aI0
aI0
aI0
aF0.72929999999999995
aF0.68120000000000003
aF1
aF1
aI0
asS'dd021'
p24
(lp25
F0.089906539873399999
aF0.089906539873399999
aF0.23640771790000001
aF0.23640771790000001
aF0.12889999999999999
aF0.089899999999999994
aF0
aF0
aI0
asS'dd020'
p26
(lp27
F0.80369447792699999
aI0
aF2
aF2
aF0.24990000000000001
aF0.1057
aF1
aF0
aI0
asS'dd027'
p28
(lp29
F0.80003211700200005
aI0
aF0.13220542897400001
aI0
aF0.61970000000000003
aF0.41039999999999999
aF0
aF0
aI0
asS'dd026'
p30
(lp31
F0.80003211700200005
aI0
aF0.772216703537
aI0
aF0.61970000000000003
aF0.41039999999999999
aF0
aF0
aI0
asS'dd024'
p32
(lp33
F2
aF2
aF0.262317247428
aI0
aF0.47839999999999999
aF0.1762
aF0
aF0
aI1
asS'dd034'
p34
(lp35
F0.62779655386
aI0
aF0.97967773613700004
aF0.97967773613700004
aF0.43230000000000002
aF0.2732
aF0
aF0
aI1
asS'dd035'
p36
(lp37
F0.62779655386
aI0
aF0.97967773613700004
aI0
aF0.43230000000000002
aF0.2732
aF0
aF0
aI1
asS'dd036'
p38
(lp39
F0.73466968986199999
aF0.62779655386
aF0.97967773613700004
aI0
aF0.43230000000000002
aF0.2732
aF0
aF0
aI1
asS'dd037'
p40
(lp41
F0.86732122056600003
aI0
aF0.95601093524799996
aI0
aF0.2097
aF0.10390000000000001
aF0
aF1
aI1
asS'dd030'
p42
(lp43
F2
aI0
aF0.36268328153200002
aF0.36268328153200002
aF0.8931
aF0.36620000000000003
aF1
aF1
aI0
asS'dd032'
p44
(lp45
F0.79516984471800001
aI0
aF0.640068948272
aI0
aF0.35149999999999998
aF0.41720000000000002
aF1
aF0
aI1
asS'dd033'
p46
(lp47
F0.62779655386
aI0
aF0.98204476641100003
aF0.97967773613700004
aF0.43230000000000002
aF0.2732
aF0
aF0
aI1
asS'dd038'
p48
(lp49
F0.80231541656399996
aI0
aF0.97217943919799998
aF0.97217943919799998
aF0.5373
aF0.9859
aF0
aF0
aI1
asS'dd039'
p50
(lp51
F2
aI0
aF0.66458786367599998
aI0
aF0.5373
aF0.9859
aF0
aF0
aI1
asS'dd221'
p52
(lp53
F2
aI0
aF2
aI0
aF0.17019999999999999
aF0.1103
aF0
aF0
aI0
asS'dd134'
p54
(lp55
F0.029187762994599999
aI0
aF0.81439829320299995
aI0
aF0.1804
aF0.31940000000000002
aF0
aF0
aI0
asS'dd136'
p56
(lp57
F0.55189463923199999
aI0
aF2
aI0
aF0.13370000000000001
aF0.2064
aF1
aF0
aI0
asS'dd041'
p58
(lp59
F0.53400068276400003
aI0
aF0.697333417861
aI0
aF0.14169999999999999
aF0.55920000000000003
aF0
aF0
aI1
asS'dd040'
p60
(lp61
F0.45165541729399999
aI0
aF2
aI0
aF0.16309999999999999
aF0.092200000000000004
aF0
aF1
aI0
asS'dd043'
p62
(lp63
F0.89415920938100002
aI0
aF0.24440114029000001
aI0
aF0.214
aF0.34370000000000001
aF1
aF1
aI1
asS'dd047'
p64
(lp65
F0.751716564285
aI0
aF0.90908245683699995
aI0
aF0.24990000000000001
aF0.59489999999999998
aF1
aF1
aI1
asS'dd046'
p66
(lp67
F0.26415521314000001
aI0
aF2
aI0
aF0.63460000000000005
aF0.29899999999999999
aF1
aF1
aI0
asS'dd207'
p68
(lp69
F0.43126562437299998
aI0
aF0.098044953154600004
aF0.51678804944099999
aF0.14749999999999999
aF0.24990000000000001
aF0.39190000000000003
aF1
aI0
asS'dd206'
p70
(lp71
F2
aI0
aF2
aI0
aF0.10539999999999999
aF0.50560000000000005
aF0
aF1
aI0
asS'dd204'
p72
(lp73
F0.72474445856900005
aF0.72474445856900005
aI0
aI0
aF0.24990000000000001
aF0.18340000000000001
aF1
aF0
aI0
asS'dd200'
p74
(lp75
F0.35700210581300001
aI0
aF0.83576484461400002
aI0
aF0.1321
aF0.39000000000000001
aF0.39190000000000003
aF0
aI0
asS'dd128'
p76
(lp77
F0.59730003122899999
aI0
aF0.67694490415399999
aI0
aF0.099400000000000002
aF0.2029
aF1
aF0
aI0
asS'dd126'
p78
(lp79
F0.42355607705600001
aI0
aF0.44318246519299997
aI0
aF0.099400000000000002
aF0.2029
aF1
aF0
aI0
asS'dd124'
p80
(lp81
F0.75500724107100003
aI0
aF2
aI0
aF0.33879999999999999
aF0.1784
aF0
aF0
aI0
asS'dd125'
p82
(lp83
F0.42349907075299997
aI0
aF0.44318246519299997
aI0
aF0.099400000000000002
aF0.2029
aF1
aF0
aI0
asS'dd123'
p84
(lp85
F2
aI0
aF0.96229155100800001
aI0
aF0.1027
aF0.68659999999999999
aF0
aF1
aI1
asS'dd120'
p86
(lp87
F0.53719995003400001
aI0
aF0.82774341252200001
aI0
aF0.8931
aF0.58540000000000003
aF1
aF0
aI0
asS'dd121'
p88
(lp89
F2
aI0
aF0.56350621554699998
aI0
aF0.8931
aF0.36620000000000003
aF1
aF1
aI0
asS'dd049'
p90
(lp91
F0.32576179907199998
aI0
aF2
aI0
aF0.24990000000000001
aF0.2097
aF1
aF0
aI0
asS'dd052'
p92
(lp93
F0.49612019838100002
aF0.49612019838100002
aF0.33520883318400002
aI0
aF0.73040000000000005
aF0.54190000000000005
aF0
aF0
aI0
asS'dd219'
p94
(lp95
F2
aI0
aF0.66273978012599999
aI0
aF0.73729999999999996
aF0.60319999999999996
aF1
aF1
aI1
asS'dd050'
p96
(lp97
F2
aI0
aF2
aI0
aF0.69120000000000004
aF0.2286
aF1
aF1
aI1
asS'dd051'
p98
(lp99
F0.49612019838100002
aI0
aF0.38007010324599999
aI0
aF0.73040000000000005
aF0.54190000000000005
aF0
aF0
aI0
asS'dd056'
p100
(lp101
F0.91839333316600003
aI0
aF0.46018040489599998
aI0
aF0.3367
aF0.33260000000000001
aF0
aF0
aI0
asS'dd054'
p102
(lp103
F0.94550968373099997
aI0
aF0.46018040489599998
aI0
aF0.3367
aF0.33260000000000001
aF0
aF0
aI0
asS'dd058'
p104
(lp105
F0.72951391402200005
aI0
aF0.78660902506599994
aI0
aF0.29749999999999999
aF0.33260000000000001
aF1
aF0
aI0
asS'dd059'
p106
(lp107
F0.94629190375100003
aI0
aF0.46018040489599998
aI0
aF0.29749999999999999
aF0.33260000000000001
aF1
aF0
aI0
asS'dd218'
p108
(lp109
F0.93734028473599995
aI0
aF2
aI0
aF0.50139999999999996
aF0.20630000000000001
aF1
aF0
aI0
asS'dd119'
p110
(lp111
F0.49447094532699998
aI0
aF0.72311302210600004
aF0.72311302210600004
aF0.36620000000000003
aF0.58540000000000003
aF1
aF0
aI0
asS'dd118'
p112
(lp113
F2
aI0
aF0.72311302210600004
aI0
aF0.8931
aF0.58540000000000003
aF1
aF0
aI0
asS'dd117'
p114
(lp115
F0.92525217280299998
aI0
aF0.83883987151799999
aI0
aF0.8931
aF0.58540000000000003
aF1
aF0
aI0
asS'dd116'
p116
(lp117
F2
aI0
aF0.41960992095299998
aI0
aF0.87460000000000004
aF0.53500000000000003
aF1
aF1
aI0
asS'dd115'
p118
(lp119
F0.38736785191000001
aI0
aF0.84881589314299999
aF2
aF0.53500000000000003
aF0.26650000000000001
aF1
aF1
aI1
asS'dd114'
p120
(lp121
F0.27263041002600003
aI0
aF0.18879211500400001
aI0
aF0.26650000000000001
aF0.379
aF1
aF0
aI1
asS'dd193'
p122
(lp123
F0.57941477703199995
aI0
aF2
aI0
aF0.57369999999999999
aF0.1321
aF0
aF0.39190000000000003
aI0
asS'dd192'
p124
(lp125
F2
aI0
aF0.121688623011
aI0
aF0.57369999999999999
aF0.1321
aF0
aF0.39190000000000003
aI0
asS'dd191'
p126
(lp127
F0.57941477703199995
aI0
aF0.39749669880400001
aI0
aF0.57369999999999999
aF0.1321
aF0
aF0.39190000000000003
aI0
asS'dd190'
p128
(lp129
F0.69793267537500003
aI0
aF0.35700210581300001
aI0
aF0.57369999999999999
aF0.1321
aF0
aF0.39190000000000003
aI0
asS'dd197'
p130
(lp131
F0.59325722986399998
aI0
aF0.367441877114
aI0
aF0.16009999999999999
aF0.1321
aF0
aF0.39190000000000003
aI0
asS'dd196'
p132
(lp133
F0.59325722986399998
aI0
aF2
aI0
aF0.16009999999999999
aF0.1321
aF0
aF0.39190000000000003
aI0
asS'dd195'
p134
(lp135
F2
aI0
aF2
aI0
aF0.16009999999999999
aF0.1321
aF0
aF0.39190000000000003
aI0
asS'dd194'
p136
(lp137
F0.59325722986399998
aI0
aF0.36943744936900003
aI0
aF0.16009999999999999
aF0.1321
aF0
aF0.39190000000000003
aI0
asS'dd199'
p138
(lp139
F0.481562768325
aI0
aF0.25188353245299999
aI0
aF0.1321
aF0.1832
aF0.39190000000000003
aF0.39190000000000003
aI0
asS'dd198'
p140
(lp141
F0.41230067599999998
aI0
aF0.26171919138299998
aI0
aF0.16009999999999999
aF0.1832
aF0
aF0.39190000000000003
aI0
asS'dd066'
p142
(lp143
F0.92862885442200005
aI0
aF0.46018040489599998
aI0
aF0.25779999999999997
aF0.33260000000000001
aF1
aF0
aI0
asS'dd064'
p144
(lp145
F0.79860590906700002
aI0
aF0.46018040489599998
aI0
aF0.29749999999999999
aF0.33260000000000001
aF1
aF0
aI0
asS'dd062'
p146
(lp147
F0.88746165060500004
aI0
aF0.46018040489599998
aI0
aF0.29749999999999999
aF0.33260000000000001
aF1
aF0
aI0
asS'dd060'
p148
(lp149
F0.96421396060499998
aI0
aF0.46018040489599998
aF0.46018040489599998
aF0.29749999999999999
aF0.33260000000000001
aF1
aF0
aI0
asS'dd188'
p150
(lp151
F0.57941477703199995
aI0
aF0.35700210581300001
aI0
aF0.57369999999999999
aF0.1321
aF0
aF0.39190000000000003
aI0
asS'dd184'
p152
(lp153
F2
aI0
aF0.44040363522600001
aI0
aF0.57369999999999999
aF0.16009999999999999
aF0
aF0
aI0
asS'dd185'
p154
(lp155
F0.70871406782000002
aI0
aF0.59325722986399998
aI0
aF0.57369999999999999
aF0.16009999999999999
aF0
aF0
aI0
asS'dd187'
p156
(lp157
F0.57941477703199995
aI0
aF0.69996679169099996
aI0
aF0.57369999999999999
aF0.16009999999999999
aF0
aF0
aI0
asS'dd180'
p158
(lp159
F0.57941477703199995
aI0
aF0.070888697935700004
aI0
aF0.57369999999999999
aF0.16009999999999999
aF0
aF0
aI0
asS'dd181'
p160
(lp161
F0.046811063620400002
aI0
aF0.29946908207599998
aI0
aF0.57369999999999999
aF0.16009999999999999
aF0
aF0
aI0
asS'dd182'
p162
(lp163
F0.57941477703199995
aI0
aF0.59325722986399998
aI0
aF0.57369999999999999
aF0.16009999999999999
aF0
aF0
aI0
asS'dd173'
p164
(lp165
F0.61843687979299999
aI0
aF2
aI0
aF0.57369999999999999
aF0.16009999999999999
aF0
aF0
aI0
asS'dd172'
p166
(lp167
F2
aI0
aF0.30833039147300001
aI0
aF0.24990000000000001
aF0.93779999999999997
aF1
aF1
aI1
asS'dd175'
p168
(lp169
F0.70391244884799997
aI0
aF0.366743337148
aI0
aF0.57369999999999999
aF0.16009999999999999
aF0
aF0
aI0
asS'dd174'
p170
(lp171
F0.57941477703199995
aI0
aF2
aI0
aF0.57369999999999999
aF0.16009999999999999
aF0
aF0
aI0
asS'dd177'
p172
(lp173
F0.57941477703199995
aI0
aF0.10819252347900001
aI0
aF0.57369999999999999
aF0.16009999999999999
aF0
aF0
aI0
asS'dd176'
p174
(lp175
F0.57941477703199995
aI0
aF0.15999418694100001
aI0
aF0.57369999999999999
aF0.16009999999999999
aF0
aF0
aI0
asS'dd179'
p176
(lp177
F0.23866619549199999
aI0
aF0.30764178750799998
aI0
aF0.57369999999999999
aF0.16009999999999999
aF0
aF0
aI0
asS'dd178'
p178
(lp179
F0.57941477703199995
aI0
aF0.22198872765700001
aI0
aF0.57369999999999999
aF0.16009999999999999
aF0
aF0
aI0
asS'dd074'
p180
(lp181
F2
aF2
aF2
aI0
aF0.095399999999999999
aF0.30570000000000003
aF0
aF1
aI0
asS'dd075'
p182
(lp183
F0.88877848227800005
aF0.88877848227800005
aF0.61072969518800002
aF0.61072969518800002
aF0.32769999999999999
aF0.095399999999999999
aF1
aF0
aI0
asS'dd162'
p184
(lp185
F2
aF0.45230809870599997
aF2
aI0
aF0.24990000000000001
aF0.1103
aF0
aF0
aI0
asS'dd163'
p186
(lp187
F2
aI0
aF2
aI0
aF0.17019999999999999
aF0.1103
aF0
aF0
aI0
asS'dd160'
p188
(lp189
F0.80231541656399996
aI0
aF0.97217943919799998
aF0.97217943919799998
aF0.5373
aF0.9859
aF0
aF0
aI1
asS'dd161'
p190
(lp191
F2
aI0
aF2
aF2
aF0.1103
aF0.24990000000000001
aF0
aF0
aI0
asS'dd164'
p192
(lp193
F0.321725435861
aI0
aF0.96168636504299998
aI0
aF0.1239
aF0.78600000000000003
aF0
aF1
aI0
asS'dd048'
p194
(lp195
F0.92862885442200005
aI0
aF0.84174870933299994
aI0
aF0.25779999999999997
aF0.1114
aF1
aF0
aI0
asS'dd009'
p196
(lp197
F0.31774201068399999
aI0
aF0.14100223194600001
aI0
aF0.1784
aF0.20300000000000001
aF0
aF0
aI0
asS'dd008'
p198
(lp199
F2
aI0
aF0.32109655204900001
aI0
aF0.1784
aF0.20300000000000001
aF0
aF0
aI0
asS'dd005'
p200
(lp201
F0.41468268596399999
aI0
aF0.21626779668599999
aI0
aF0.43880000000000002
aF0.1996
aF0
aF1
aI0
asS'dd004'
p202
(lp203
F2
aI0
aF0.23984263774199999
aI0
aF0.50560000000000005
aF0.16400000000000001
aF1
aF1
aI1
asS'dd007'
p204
(lp205
F0.31774201068399999
aI0
aF2
aI0
aF0.1784
aF0.20300000000000001
aF0
aF0
aI0
asS'dd006'
p206
(lp207
F0.72112356848100001
aF0.72112356848100001
aF0.029187762994599999
aI0
aF0.20300000000000001
aF0.1804
aF0
aF0
aI0
asS'dd001'
p208
(lp209
F0.93697054297399995
aI0
aF2
aI0
aF0.3367
aF0.29749999999999999
aF0
aF1
aI1
asS'dd003'
p210
(lp211
F2
aI0
aF0.23984263774199999
aI0
aF0.50560000000000005
aF0.16400000000000001
aF1
aF1
aI1
asS'dd002'
p212
(lp213
F2
aI0
aF0.032763670266000001
aI0
aF0.50560000000000005
aF0.16400000000000001
aF1
aF1
aI1
asS'dd085'
p214
(lp215
F0.72474445856900005
aF2
aI0
aI0
aF0.24990000000000001
aF0.18340000000000001
aF1
aF0
aI0
asS'dd084'
p216
(lp217
F2
aF0.72474445856900005
aI0
aI0
aF0.24990000000000001
aF0.18340000000000001
aF1
aF0
aI0
asS'dd086'
p218
(lp219
F0.52841005328500001
aF2
aF2
aI0
aF0.1794
aF0.32769999999999999
aF0
aF1
aI0
asS'dd083'
p220
(lp221
F0.14976693101899999
aI0
aF0.46808573585899999
aI0
aF0.095399999999999999
aF0.32769999999999999
aF0
aF1
aI0
asS'dd082'
p222
(lp223
F2
aI0
aF0.38657631918200003
aI0
aF0.095399999999999999
aF0.32769999999999999
aF0
aF1
aI0
asS'dd159'
p224
(lp225
F0.80231541656399996
aI0
aF0.97217943919799998
aI0
aF0.5373
aF0.9859
aF0
aF0
aI1
asS'dd158'
p226
(lp227
F0.80231541656399996
aI0
aF0.97217943919799998
aI0
aF0.5373
aF0.9859
aF0
aF0
aI1
asS'dd157'
p228
(lp229
F0.91895685489500001
aI0
aF2
aF0.61728986598299995
aF0.33879999999999999
aF0.24990000000000001
aF0
aF0
aI0
asS'dd156'
p230
(lp231
F2
aF2
aF0.22916064917100001
aI0
aF0.17019999999999999
aF0.1648
aF0
aF0
aI0
asS'dd155'
p232
(lp233
F2
aF2
aF0.62461566806299995
aI0
aF0.33879999999999999
aF0.17019999999999999
aF0
aF0
aI0
asS'dd154'
p234
(lp235
F2
aF2
aF0.65364863130899997
aI0
aF0.16300000000000001
aF0.20300000000000001
aF0
aF0
aI0
asS'dd153'
p236
(lp237
F2
aF0.91672231746599997
aF0.69516910607600002
aI0
aF0.33879999999999999
aF0.20300000000000001
aF0
aF0
aI0
asS'dd152'
p238
(lp239
F2
aF2
aF0.29878298401300002
aI0
aF0.16309999999999999
aF0.092200000000000004
aF0
aF1
aI0
asS'dd018'
p240
(lp241
F0.55189463923199999
aI0
aF2
aI0
aF0.13370000000000001
aF0.78600000000000003
aF1
aF1
aI0
asS'dd019'
p242
(lp243
F0.80369447792699999
aF0.80369447792699999
aF2
aI0
aF0.24990000000000001
aF0.1057
aF1
aF0
aI0
asS'dd013'
p244
(lp245
F0.93355299638199996
aI0
aF2
aI0
aF0.78600000000000003
aF0.23799999999999999
aF1
aF0
aI0
asS'dd010'
p246
(lp247
F2
aI0
aF0.084164338957200005
aI0
aF0.092899999999999996
aF0.1062
aF1
aF1
aI0
asS'dd011'
p248
(lp249
F0.84881589314299999
aF0.84881589314299999
aF2
aI0
aF0.26650000000000001
aF0.53500000000000003
aF1
aF1
aI1
as.