(dp1
S'dd148'
p2
I0
sS'dd220'
p3
I1
sS'dd223'
p4
I0
sS'dd222'
p5
I0
sS'dd144'
p6
I1
sS'dd145'
p7
I0
sS'dd146'
p8
I0
sS'dd147'
p9
I1
sS'dd029'
p10
I1
sS'dd023'
p11
I0
sS'dd022'
p12
I0
sS'dd021'
p13
I0
sS'dd020'
p14
I1
sS'dd027'
p15
I0
sS'dd026'
p16
I1
sS'dd024'
p17
I1
sS'dd034'
p18
I1
sS'dd035'
p19
I1
sS'dd036'
p20
I1
sS'dd037'
p21
I1
sS'dd030'
p22
I1
sS'dd032'
p23
I1
sS'dd033'
p24
I1
sS'dd038'
p25
I1
sS'dd039'
p26
I1
sS'dd221'
p27
I0
sS'dd134'
p28
I1
sS'dd136'
p29
I1
sS'dd041'
p30
I1
sS'dd040'
p31
I1
sS'dd043'
p32
I1
sS'dd047'
p33
I1
sS'dd046'
p34
I1
sS'dd207'
p35
I0
sS'dd206'
p36
I0
sS'dd204'
p37
I0
sS'dd200'
p38
I0
sS'dd128'
p39
I1
sS'dd126'
p40
I1
sS'dd124'
p41
I0
sS'dd125'
p42
I1
sS'dd123'
p43
I0
sS'dd120'
p44
I0
sS'dd121'
p45
I0
sS'dd049'
p46
I1
sS'dd052'
p47
I1
sS'dd219'
p48
I1
sS'dd050'
p49
I1
sS'dd051'
p50
I0
sS'dd056'
p51
I1
sS'dd054'
p52
I1
sS'dd058'
p53
I1
sS'dd059'
p54
I1
sS'dd218'
p55
I1
sS'dd119'
p56
I0
sS'dd118'
p57
I0
sS'dd117'
p58
I0
sS'dd116'
p59
I0
sS'dd115'
p60
I0
sS'dd114'
p61
I0
sS'dd193'
p62
I0
sS'dd192'
p63
I0
sS'dd191'
p64
I0
sS'dd190'
p65
I0
sS'dd197'
p66
I0
sS'dd196'
p67
I0
sS'dd195'
p68
I0
sS'dd194'
p69
I0
sS'dd199'
p70
I0
sS'dd198'
p71
I0
sS'dd066'
p72
I1
sS'dd064'
p73
I1
sS'dd062'
p74
I1
sS'dd060'
p75
I1
sS'dd188'
p76
I0
sS'dd184'
p77
I0
sS'dd185'
p78
I0
sS'dd187'
p79
I0
sS'dd180'
p80
I0
sS'dd181'
p81
I0
sS'dd182'
p82
I0
sS'dd173'
p83
I0
sS'dd172'
p84
I1
sS'dd175'
p85
I0
sS'dd174'
p86
I0
sS'dd177'
p87
I0
sS'dd176'
p88
I0
sS'dd179'
p89
I0
sS'dd178'
p90
I0
sS'dd074'
p91
I0
sS'dd075'
p92
I0
sS'dd162'
p93
I0
sS'dd163'
p94
I0
sS'dd160'
p95
I1
sS'dd161'
p96
I1
sS'dd164'
p97
I0
sS'dd048'
p98
I1
sS'dd009'
p99
I1
sS'dd008'
p100
I0
sS'dd005'
p101
I0
sS'dd004'
p102
I0
sS'dd007'
p103
I0
sS'dd006'
p104
I1
sS'dd001'
p105
I1
sS'dd003'
p106
I0
sS'dd002'
p107
I0
sS'dd085'
p108
I1
sS'dd084'
p109
I1
sS'dd086'
p110
I1
sS'dd083'
p111
I0
sS'dd082'
p112
I0
sS'dd159'
p113
I1
sS'dd158'
p114
I1
sS'dd157'
p115
I0
sS'dd156'
p116
I0
sS'dd155'
p117
I0
sS'dd154'
p118
I0
sS'dd153'
p119
I0
sS'dd152'
p120
I1
sS'dd018'
p121
I1
sS'dd019'
p122
I1
sS'dd013'
p123
I1
sS'dd010'
p124
I0
sS'dd011'
p125
I1
s.